(lp0
VCollectibles
p1
aVDecorative & Holiday
p2
aVDecorative by Brand
p3
aVChristopher Radko
p4
aVEnesco
p5
aVPrecious Moments
p6
aVOther Enesco Items
p7
aVDreamsicles
p8
aVAutographs, Paper & Writing
p9
aVPaper
p10
aVEphemera
p11
aVHallmark
p12
aVMiniature Ornaments
p13
aVAvon
p14
aVOther Avon Items
p15
aVHousewares & Kitchenware
p16
aVBarware
p17
aVOther Barware
p18
aVPop Culture
p19
aVComics
p20
aVSilver Age (1956-69)
p21
aVHorror, Sci-Fi
p22
aVBottles: Antique (Pre-1900)
p23
aVMedicines, Cures
p24
aVModern Age (1980-Now)
p25
aVAlternative, Underground
p26
aVMary's Moo Moos
p27
aVSuperhero
p28
aVArt, Animation & Photo Images
p29
aVPhotographic Images
p30
aVContemporary (1940-Now)
p31
aVCelebrity
p32
aVOther
p33
aVGolden Age (1938-55)
p34
aVWesterns
p35
aVKitchenware
p36
aVOther Kitchenware
p37
aVClassics Illustrated
p38
aVSalt, Pepper Shakers
p39
aVRange Sets
p40
aVDecanters
p41
aVCookie Jars
p42
aVModern (1970-Now)
p43
aVFranklin Mint
p44
aVOther Franklin Mint Items
p45
aVKnowles Collector Plates
p46
aVIce Buckets
p47
aVMugs
p48
aVMagazines
p49
aVOther Magazines
p50
aVANRI
p51
aVFurnishings, Knives & Tools
p52
aVClocks
p53
aVAntique (Pre-1930)
p54
aVShelf
p55
aVLladro
p56
aVFigurines
p57
aVFruit Jars
p58
aVCollections
p59
aVDept 56
p60
aVOther Dept 56 Items
p61
aVAdvertising
p62
aVCars
p63
aVAmerican
p64
aVBuick
p65
aVCookie Cutters
p66
aVOrnaments
p67
aVPretty as a Picture
p68
aVCorkscrews
p69
aVOriginal Comic Art
p70
aVPaintings
p71
aVCartoon Character
p72
aVHarmony Kingdom
p73
aVBottles
p74
aVGraphic Novels, TPBs
p75
aVFull Runs
p76
aVInternational
p77
aVUK
p78
aVDickens Village
p79
aVAlpine Village
p80
aVDavid Winter
p81
aVSnow Village
p82
aVNorth Pole
p83
aVBells
p84
aVNorman Rockwell
p85
aVCollector Plates
p86
aVDuncan Royale
p87
aVSwarovski
p88
aVBradford Exchange
p89
aVTextiles
p90
aVBed & Bath Linens
p91
aVBedspreads
p92
aVBottles: Modern (1900-Now)
p93
aVMilk
p94
aVCherished Teddies
p95
aVBakeware
p96
aVOther Silver Age
p97
aVClothing & Accessories
p98
aVBoys
p99
aVClothing
p100
aVBoys (Sz 8 and up)
p101
aVTops & T-Shirts
p102
aVCurtains, Draperies
p103
aVFlambro
p104
aVMagic
p105
aVBooks
p106
aVNew England Village
p107
aVMovie, TV
p108
aVSnowbabies
p109
aVRoyal Doulton
p110
aVShaving
p111
aVBronze Age (1970-79)
p112
aVMen
p113
aVClothing: Big & Tall
p114
aVShirts
p115
aVT-Shirts, Tank Tops
p116
aVMetalware
p117
aVChrome
p118
aVLimoges
p119
aVTrinket Boxes
p120
aVQuilts
p121
aVHummel, Goebel
p122
aVPromo Glasses
p123
aVRugs
p124
aVMemories of Yesterday
p125
aVTableware
p126
aVOther Tableware
p127
aVAccessories
p128
aVHats
p129
aVMovies & Television
p130
aVMemorabilia
p131
aVTheater
p132
aVPosters
p133
aVHeritage Village
p134
aVLefton Figurines
p135
aVArmani
p136
aVOther Antique Bottles
p137
aVOther Magic Items
p138
aVHistorical Memorabilia
p139
aVFirefighting
p140
aVCharming Tails
p141
aVBing & Grondahl Coll Plates
p142
aVSports
p143
aVGolf-Other
p144
aVScience Fiction
p145
aVStar Wars
p146
aVWomen
p147
aVIntimates
p148
aVSlips
p149
aVBrass
p150
aVDanbury Mint
p151
aVHeavy Metal
p152
aVFabric
p153
aVShot Glasses
p154
aVOutwear
p155
aVSeries Ornaments
p156
aVPourers, Stoppers
p157
aVPlatinum Age (1897-1937)
p158
aVSnowbunnies
p159
aVOther Metalware
p160
aVSouvenir Programs
p161
aVLenox
p162
aVOther Lenox Collectibles
p163
aVTrivets
p164
aVCoasters
p165
aVOther Modern Bottles
p166
aVLace, Crochet, Doilies
p167
aVHOMCO
p168
aVOther Limoges Collectibles
p169
aVJosef
p170
aVRomance
p171
aVTrading Cards
p172
aVOther Sci-Fi
p173
aVBackpacks, Bags
p174
aVCat's Meow Village
p175
aVThomas Kinkade
p176
aVOther Kinkade Collectibles
p177
aVPewter
p178
aVClothing: Regular
p179
aVOuterwear
p180
aVJackets
p181
aVOther Jackets
p182
aVOther Lladro Collectibles
p183
aVOther Modern Age
p184
aVEgg Cups
p185
aVLongaberger
p186
aVBaskets
p187
aVAnimals
p188
aVDog
p189
aVBeagle
p190
aVMixing Bowls
p191
aVSmall Appliances
p192
aVBlenders
p193
aVOther Shakers
p194
aVMilitaria
p195
aVCivil War (1861-65)
p196
aVReenactment, Repro
p197
aVTable Linens
p198
aVTablecloths
p199
aVOther Longaberger Items
p200
aVSwizzle/Stir Sticks
p201
aVOther Hallmark Collectibles
p202
aVUtensils
p203
aVMeasuring Cups, Spoons
p204
aVOther Bronze Age
p205
aVTupperware
p206
aVContemporary (1970-Now)
p207
aVCookware
p208
aVOther Cookware
p209
aVAluminum
p210
aVLucy & Me
p211
aVEuropean
p212
aVAlfa Romeo
p213
aVFitz & Floyd
p214
aVOther Fitz&Floyd Collectibles
p215
aVWar
p216
aVTea Kettles
p217
aVNapkin Holders
p218
aVChoppers
p219
aVDinnerware, Serving
p220
aVSouvenir
p221
aVCasual
p222
aVShort Sleeve
p223
aVOther Non-Sports
p224
aVCrime
p225
aVIrons
p226
aVCanisters
p227
aVOther Items
p228
aVHamilton Collector Plates
p229
aVLunchboxes, Thermoses
p230
aVVintage Metal
p231
aVOther Memorabilia
p232
aVServing Trays
p233
aVHarbour Lights
p234
aVUnderwear, Sleepwear
p235
aVRobes, Sleepwear
p236
aVLiners
p237
aVMagnets
p238
aVTobacciana
p239
aVCigarette
p240
aVOther Cigarettes
p241
aVFlatware
p242
aVInks
p243
aVPitchers
p244
aVCandle Holders
p245
aVSodas
p246
aVOther Utensils
p247
aVOther Original Art
p248
aVFanzines, Fan Clubs
p249
aVNewspaper Comics
p250
aVCamel
p251
aVCombos
p252
aVOther Comics
p253
aVTelevision
p254
aVPhotos
p255
aVFlue Covers
p256
aVDrawings, Sketches
p257
aVByers Choice
p258
aVMolds
p259
aVFriends of the Feather
p260
aVMary Engelbreit
p261
aVKeychains
p262
aVOther Historical Items
p263
aVSilverplate
p264
aVSchnauzer
p265
aVColanders, Strainers
p266
aVBoyds
p267
aVMovie
p268
aV1990-Now
p269
aVPersonal Care
p270
aVFragrances: Women
p271
aVEstee Lauder
p272
aVSterling Silver
p273
aVCoffee Makers
p274
aVBlankets
p275
aVTom Clark
p276
aVSchmid
p277
aVLilliput Lane
p278
aVSpoon Rests
p279
aVStar Trek
p280
aVOpen Salts
p281
aVCalico Kittens
p282
aVMiniatures
p283
aVTable Accessories
p284
aVOther Outerwear
p285
aVMad
p286
aVOther Bed & Bath Linens
p287
aVTapestries
p288
aVWhiskeys: Screw Top
p289
aVCake Carriers, Savers
p290
aVCovers
p291
aVCast Iron
p292
aVOther Golden Age
p293
aVSpice Racks, Jars
p294
aVGraniteware
p295
aVWillitts
p296
aVJust the Right Shoe
p297
aVHair, Skin Care
p298
aVVintage (Pre-1970)
p299
aV1940-69
p300
aVSheets, Pillowcases
p301
aVBreweriana
p302
aVSigns, Tins
p303
aVNodders
p304
aVMelamine, Melmac
p305
aVTexas Ware
p306
aVTin
p307
aVFlasks
p308
aVChristmas in the City
p309
aVMerry Miniatures
p310
aVUtility & Black Glass
p311
aVNapkins, Placemats, Runners
p312
aVAshtrays
p313
aVFrance
p314
aVSingles
p315
aVContemporary Metal
p316
aVPez
p317
aVOther Pez
p318
aVSteins, Drinkware
p319
aVSteins
p320
aVTools
p321
aVCarpentry, Woodworking
p322
aVLevels, Plumb Bobs
p323
aVPinbacks
p324
aVCopper
p325
aVTie-ons
p326
aVArt
p327
aVPrints
p328
aVOther Prints
p329
aVFeed Sacks, Flour Sacks
p330
aVKitchen Textiles
p331
aVOther Kitchen Textiles
p332
aVSamplers
p333
aVRoman
p334
aVSeraphim Classics
p335
aVOther Small Appliances
p336
aVOpeners
p337
aVOther Doulton Collectibles
p338
aVComic
p339
aVXena
p340
aVContemporary Plastic
p341
aVPocket Dragons
p342
aVMisses
p343
aVBread Boxes
p344
aVOther Textiles
p345
aVBabylon 5
p346
aVVideo, Film
p347
aVVHS
p348
aVHorror
p349
aVDr. Who
p350
aVAlternative, Zines
p351
aVFigurals
p352
aVOther Lunchboxes
p353
aVX-Files
p354
aVGarters
p355
aVOther Swarovski Items
p356
aVFontanini
p357
aVDrama
p358
aVMargaret Furlong
p359
aVDVD
p360
aVForeign
p361
aVSci-Fi
p362
aVLeather
p363
aVOther Danbury Mint Items
p364
aVProps
p365
aVOther Roman Collectibles
p366
aVAutographs
p367
aVFootball-NFL
p368
aVMartial Arts
p369
aVToys & Hobbies
p370
aVGames
p371
aVMage Knight
p372
aVPhoto
p373
aVCamera Accessories
p374
aVFilters
p375
aVSky & UV
p376
aVHome & Garden
p377
aVBaby Items
p378
aVFeeding
p379
aVHigh Chairs
p380
aVSafety
p381
aVMonitors
p382
aVCoins
p383
aVCoins: US
p384
aVHalves
p385
aVSeated Liberty (1839-91)
p386
aVNursery
p387
aVBedding
p388
aVSheets
p389
aVStamps
p390
aVUnited States
p391
aVPossessions
p392
aVComputers
p393
aVApple, Macintosh
p394
aVDrives-Internal
p395
aVDuck Stamps
p396
aVGardening
p397
aVPlants, Seeds, Bulbs
p398
aVHouseplants
p399
aVFood & Beverage
p400
aVHoney, Syrup
p401
aVPottery & Glass
p402
aVGlass
p403
aVStained Glass
p404
aVSupplies
p405
aVHalf Dimes
p406
aVPaper Money: World
p407
aVCanada
p408
aVDominion of Canada
p409
aVPaper Money: US
p410
aVObsolete Currency
p411
aVBed & Bath
p412
aVConsumer Electronics
p413
aVPhones & Wireless Devices
p414
aVCellular, Wireless Phones
p415
aVMotorola
p416
aVHands-Free Headsets, Kits
p417
aVCoins: World
p418
aVUK (Great Britain)
p419
aVCollections, Lots
p420
aVQuarters
p421
aVStanding Liberty (1916-30)
p422
aVHome Audio & Video
p423
aVCable & Satellite
p424
aVCable
p425
aVCovers, Event
p426
aVPostal History
p427
aVPottery & China
p428
aVPottery
p429
aVCalifornia Pottery
p430
aVHome D_cor
p431
aVAccent Pieces
p432
aVVideo Games
p433
aVNintendo, Super
p434
aVRole Playing
p435
aVCollections, Mixture
p436
aVAudiovox
p437
aVPfaltzgraff
p438
aVGadgets & Other Electronics
p439
aVGPS
p440
aVLaptops & Accessories
p441
aVMemory Upgrades
p442
aVOther World
p443
aVChina
p444
aVHousekeeping & Storage
p445
aVLaundry & Closets
p446
aVIrons, Ironing Boards
p447
aVNintendo 64
p448
aVSatellite
p449
aVDSS Receivers
p450
aVLarge Cents
p451
aVBraided Hair (1840-57)
p452
aVWashington (1932-Now)
p453
aVTools, Gear, Equipment
p454
aVLawn Mowers, Tractors
p455
aV50 States (1999-2008)
p456
aVFenton
p457
aVOther Baby Items
p458
aVFloral D_cor
p459
aVWreaths
p460
aVPrinters & Supplies
p461
aVLaser Printers
p462
aVB&W
p463
aVHP
p464
aVTickets & Travel
p465
aVTickets & Experiences
p466
aVEvent Tickets
p467
aVSporting Events
p468
aVFootball
p469
aVProfessional
p470
aVDolls & Bears
p471
aVBears
p472
aVRetired, Discontinued
p473
aVDigital Cameras
p474
aVDrives, Media
p475
aVDrives
p476
aVHard Drives-IDE
p477
aVTaylor Smith & Taylor
p478
aVBarbie
p479
aVContemporary (1973-Now)
p480
aVPink Box
p481
aVArtist
p482
aVManufactured
p483
aVFDCs (pre-1951)
p484
aVPyrex
p485
aVNintendo NES
p486
aVDolls
p487
aVBy Material
p488
aVPorcelain
p489
aVLenses
p490
aVTo fit Nikon
p491
aVEAPG
p492
aVColored
p493
aVIroquois
p494
aVKyocera/Qualcomm
p495
aVEurope
p496
aVItaly & Area
p497
aVSony PlayStation
p498
aVArcade
p499
aVElegant
p500
aVEricsson
p501
aVCingular
p502
aVWedgwood
p503
aVOther Wedgwood Collectibles
p504
aVBusiness, Office & Industrial
p505
aVOffice Equipment
p506
aVCopiers
p507
aVOther Brands
p508
aV16-inch or smaller
p509
aVHall
p510
aVCar Audio & Electronics
p511
aVSubwoofers
p512
aV10 Inch
p513
aVLexmark
p514
aVBeta
p515
aVD_cor
p516
aVAntique
p517
aVOther Antique Dolls
p518
aVLamps, Lighting, Ceiling Fans
p519
aVTable Lamps
p520
aVInput Peripherals
p521
aVGaming Controls
p522
aVPie Birds
p523
aVPower Tools
p524
aVOther Power Tools
p525
aVPCMCIA Cards
p526
aVRumble Paks
p527
aVGarden D_cor
p528
aVGazing Balls
p529
aVScanners
p530
aVUSB
p531
aVParagon
p532
aVMousepads
p533
aVMemory Cards & Expansion Paks
p534
aVHandbags
p535
aVCasual, Daytime
p536
aVOther Casual Styles
p537
aVVaseline
p538
aVWire, Cables
p539
aVVideo Cables
p540
aVEducational, Developmental
p541
aVWade Figurines
p542
aVHerend
p543
aVPickard
p544
aVVases
p545
aVNetworking & I.T.
p546
aVNetwork Interface Cards
p547
aVInternet Games
p548
aVAdapters & Cables
p549
aVWaterford
p550
aVAntiques & Art
p551
aVAntiques
p552
aVDecorative Arts
p553
aVSoftware
p554
aVPC
p555
aVBusiness
p556
aVProject Management
p557
aVOther Lamps, Lighting
p558
aVFlat Panel
p559
aVBasketball
p560
aVGift Certificates
p561
aVRestaurants
p562
aVMusic
p563
aVCDs, Records, & Tapes
p564
aVCDs
p565
aVClassical
p566
aVPre-1940
p567
aVLobby Cards
p568
aVPressbooks, Press Kits
p569
aVPressbooks (1960-Now)
p570
aVPress Kits
p571
aVAntique, Vintage (Pre-1940)
p572
aVPressbooks (1900-59)
p573
aVWindow Cards
p574
aVReproduction
p575
aVSilver
p576
aVInternational/1847 Rogers
p577
aVReggae, Ska
p578
aVAds, Flyers
p579
aVStandees
p580
aVMovies
p581
aV1970-89
p582
aVScripts
p583
aVPlaybills
p584
aVWardrobe
p585
aVAudio
p586
aVCassettes
p587
aVAction, Adventure
p588
aVMusic & Concert
p589
aVFiction
p590
aVAdventure
p591
aVContemporary (1950-Now)
p592
aVLaserdisc
p593
aVPAL
p594
aVExercise
p595
aVChildren, Family
p596
aVBelt Buckles
p597
aVAnimation
p598
aVComedy
p599
aV16mm
p600
aVProps, Wardrobe
p601
aVClassics
p602
aVFirst Editions
p603
aVMilitary
p604
aVChildren
p605
aVMystery, Adventure
p606
aVPop
p607
aVCeramics
p608
aVRock: Alternative
p609
aVInfants
p610
aV3-6 Months
p611
aVDresses
p612
aV8mm
p613
aVRock: Hard
p614
aVCult
p615
aVDocumentary
p616
aVAntique (Pre-1900)
p617
aVPortrait
p618
aVNeckwear
p619
aVNeck Ties
p620
aVMagazines, Catalogs
p621
aVNational Geographic
p622
aVFantasy
p623
aVCartoons
p624
aVAntiquities
p625
aVMystery
p626
aVRecords
p627
aV33 RPM/LPs
p628
aVColor Vinyl
p629
aVIllustrated
p630
aVMusicals
p631
aVBody Care
p632
aVShavers
p633
aVRock: Classic
p634
aVSoundtracks: Film
p635
aVInstructional
p636
aVTrue Crime
p637
aVNonfiction
p638
aVBlues
p639
aVOther Norman Rockwell Items
p640
aVIndependent Films
p641
aVCountry
p642
aVVehicles
p643
aVModern (1900-49)
p644
aVOpen Editions
p645
aVOld Time Radio
p646
aVHouse
p647
aVMovies, TV
p648
aVOther Movie, TV
p649
aVBronze
p650
aVReligion
p651
aVAntiquarian, Rare
p652
aVIllustrated, Art
p653
aVBuffy the Vampire Slayer
p654
aVFolk
p655
aVNapkin Rings
p656
aVMystery, Suspense
p657
aVTextbooks, Education
p658
aVSelf-Help
p659
aVEthnographic
p660
aVNative American
p661
aVScience, Nature
p662
aVMixers
p663
aVPartyLite
p664
aVTricks
p665
aVRacing-NASCAR
p666
aVOther Melamine Items
p667
aVFunny Animal
p668
aVPlus Sizes
p669
aVEvening Wear
p670
aVWraps
p671
aVFootwear
p672
aVLoafers
p673
aVAprons
p674
aVPostcards
p675
aVNon-US Countries, Town Views
p676
aVCaribbean Islands
p677
aVTransportation
p678
aVAutomobilia
p679
aVLicense Plates
p680
aVUS: Colorado
p681
aVMarlboro
p682
aVSplash Pages
p683
aVShakers
p684
aVKiddie Car Classics
p685
aVCoffee Grinders, Mills
p686
aVFootball-Other
p687
aVJeans
p688
aVPulps
p689
aVLong Sleeve
p690
aVEnamelware
p691
aVBottles: Reproduction
p692
aVWheaton
p693
aVPendelfin
p694
aVVintage (no feet)
p695
aVCultures & Religions
p696
aVCultures
p697
aVAsian
p698
aVChinese
p699
aVHoliday, Seasonal
p700
aVChristmas: Modern (1946-90)
p701
aVBasketball-NBA
p702
aVUS State, Town Views
p703
aVWest Virginia
p704
aVJapan
p705
aVPhone Cards
p706
aVBooks, Manuscripts
p707
aVHorror, Mystery
p708
aVSterling
p709
aVGorham, Whiting
p710
aVSoap Opera Digest
p711
aVCED
p712
aV6-12 Months
p713
aVOutfits & Sets
p714
aV12-24 Months
p715
aVBottoms
p716
aVGirls
p717
aVOther Accessories
p718
aVLittle Boys (Sz 4-7)
p719
aVMixed Lots
p720
aVJeans & Pants
p721
aVLittle Girls (Sz 4-6x)
p722
aV0-3 Months
p723
aVOne-Pieces
p724
aVTeens
p725
aVTops
p726
aVGirls (Sz 7 and up)
p727
aVSleepwear
p728
aVJewelry, Gems & Watches
p729
aVFine Jewelry
p730
aVNew, Contemporary
p731
aVNecklaces
p732
aVDiamond
p733
aVEverything Else
p734
aVGifts & Party Supplies
p735
aVGag Gifts, Novelties
p736
aVGag Gifts
p737
aVDress
p738
aVPearl
p739
aVGold
p740
aV16 Inch
p741
aVMedical, Dental
p742
aVInstruments
p743
aVToddlers (Sz 2T-4T)
p744
aV24 Inch
p745
aVSweaters
p746
aVPants
p747
aV18 Inch
p748
aVSweats
p749
aVRings
p750
aVEmerald
p751
aVDiecast, Toy Vehicles
p752
aVCars, Trucks-Diecast
p753
aVHot Wheels
p754
aVModern (1980-Now)
p755
aVSocks & Tights
p756
aVSwimwear
p757
aVCoats
p758
aVShorts
p759
aVOther Lengths
p760
aVBlazers & Sports Coats
p761
aVHair Accessories
p762
aVUnderwear
p763
aVOxfords
p764
aVShoulder Bags
p765
aVBoots
p766
aVOther Boots
p767
aVOther Footwear
p768
aVBelts
p769
aVSleepwear, Robes
p770
aVNightgowns
p771
aVOther Shirts
p772
aVPetites
p773
aVCareer
p774
aVJackets, Blazers
p775
aVHeels, Pumps
p776
aVOther Heels, Pumps
p777
aVScarves
p778
aVOther Dresses
p779
aVSandals
p780
aVSuits
p781
aVBracelets
p782
aVOther Gemstone
p783
aVJade
p784
aVOrganizers, Planners
p785
aVSunglasses
p786
aVDaytime
p787
aVPanties
p788
aVRetail
p789
aVShelving & Racks
p790
aVVests
p791
aVCorsets
p792
aVOther Tops
p793
aVPajamas
p794
aVTotes
p795
aVMaisto
p796
aVWedding Apparel
p797
aVBrides' Gowns
p798
aVSleeveless
p799
aV20 Inch
p800
aVClassic Toys
p801
aVMarbles
p802
aVMachine Made
p803
aVExercise, Fitness
p804
aVOther Coats
p805
aVOther Materials
p806
aVGloves, Mittens
p807
aVMakeup & Face Care
p808
aVCleansers & Moisturizers
p809
aVSuspenders, Braces
p810
aVAthletic Shoes
p811
aVOther Athletic Shoes
p812
aVTop & T-Shirts
p813
aVCustom
p814
aVDenim
p815
aVBras
p816
aVUnderwire
p817
aVBackpacks, Purses
p818
aVPromotional
p819
aVBriefcases
p820
aVEvening
p821
aVGrooms' Attire
p822
aVMixed Sizes
p823
aVAthletic
p824
aVAction Figures
p825
aVVintage (1977-89)
p826
aVHiking
p827
aVSets
p828
aVSkirts
p829
aVSchool Uniforms
p830
aVFur
p831
aVLip Color
p832
aVTreasure Hunt
p833
aVDress, Evening
p834
aVOther Neckwear
p835
aVOther Gowns
p836
aVWallets
p837
aVRunning
p838
aVBriefs
p839
aVMaternity
p840
aVPush-Up
p841
aVCostume Jewelry
p842
aVVintage
p843
aVDesigner, Signed
p844
aVOral Hygiene
p845
aVHosiery
p846
aVSocks
p847
aVBoxers
p848
aVElectronic, Battery, Wind-Up
p849
aVElectronic, Interactive
p850
aVFurby
p851
aVFlats
p852
aVCross Training
p853
aVWork
p854
aVBoard, Traditional Games
p855
aVTrivial Pursuit
p856
aVMules
p857
aV22 Inch
p858
aVClogs
p859
aVHair Care
p860
aVClippers, Trimmers
p861
aVDemi-Cup
p862
aVFragrances: Men
p863
aVBath, Shower Gel
p864
aVCowboy, Western
p865
aVOther Evening Bags
p866
aVStockings
p867
aVLotion
p868
aVCamisoles
p869
aVSoft Cup
p870
aVShapers
p871
aVWigs, Extensions
p872
aVClutches
p873
aVCases, Bags, Totes
p874
aVBeaded
p875
aVBackpacks
p876
aVWalking
p877
aVCalvin Klein
p878
aVPins, Brooches
p879
aVYo-Yos
p880
aVParty, Occasion Supplies
p881
aVRetirement
p882
aVEyeshadow
p883
aVFoundation
p884
aVHair Removal
p885
aVNail Care
p886
aVNail Color
p887
aVBridesmaids' Dresses
p888
aVSets & Kits
p889
aVRobes
p890
aVVeils, Headpieces
p891
aVCharms, Lockets
p892
aVBlush
p893
aVOther Sleepwear
p894
aVSlippers, Moccasins
p895
aVPantyhose
p896
aVBow Ties
p897
aVOther Board Games
p898
aVLeotards, Unitards
p899
aVLoose Gemstones
p900
aVTourmaline
p901
aVOval
p902
aVSoap
p903
aVMascara, Eyeliner
p904
aVOther Bras
p905
aVNursing
p906
aVTelephone Systems
p907
aVSuper Hero
p908
aVX-Men
p909
aVMassagers
p910
aVFace Powder
p911
aVBeads, Amulets
p912
aVCrystal, Lampwork & Glass
p913
aVCrystal
p914
aVVintage, Antique
p915
aVOther Flats
p916
aVFlower Girls' Dresses
p917
aVElizabeth Arden
p918
aVShampoo
p919
aVTennis
p920
aVCross-Training
p921
aVOther Shapes
p922
aVChanel
p923
aVIce Cream Scoops
p924
aVKnives
p925
aVOther Knives
p926
aVWhiskeys, Gins, Schnapps
p927
aVTowels
p928
aVJewelry
p929
aVOther Hummel Collectibles
p930
aVCutlery
p931
aVAviation
p932
aVAirlines
p933
aVPiedmont
p934
aVMy Blushing Bunnies
p935
aVVintage Clothing, Accessories
p936
aVClothing (Pre-1980)
p937
aV1940-59
p938
aVLingerie, Stockings
p939
aVSarah's Attic
p940
aVCurrent
p941
aVCaps & Hats
p942
aVTwo-Piece
p943
aVOne-Piece
p944
aVConcealer
p945
aVConditioner
p946
aVPoo-Chi
p947
aVBrushes, Combs
p948
aVWeird Stuff
p949
aVSlightly Unusual
p950
aVFiles, Implements
p951
aVWatches
p952
aVWristwatches
p953
aVBrand Name
p954
aVTAG Heuer
p955
aVMotorcycle
p956
aVStrapless
p957
aVRisque Novelties
p958
aVOther Boys Items
p959
aVNASCAR
p960
aVAction/Revell
p961
aVBrushes, Applicators
p962
aVEthnic, Tribal Jewelry
p963
aVOther Ethnic, Tribal
p964
aVWrestling
p965
aVGel, Mousse, Spray
p966
aVHeat Styling
p967
aVHair Dryers
p968
aVToners, Fresheners
p969
aVFirst Gear
p970
aVChains, Necklaces
p971
aVMagic, Gaming Cards (CCG)
p972
aVMagic the Gathering
p973
aVIndividual Cards
p974
aVBitters
p975
aVDisneyana
p976
aVContemporary (1968-Now)
p977
aVPins, Buttons
p978
aVBar Sets
p979
aVPens, Pencils, Pads
p980
aVSwords
p981
aVRailroadiana, Trains
p982
aVOther Paper
p983
aVTender Tails
p984
aVChristmas: Vintage (Pre-1946)
p985
aVMineral Waters
p986
aVVanity Items
p987
aVPerfumes
p988
aVPoisons
p989
aVOther Willitts
p990
aVThis Little Piggy
p991
aVBird
p992
aVOther Birds
p993
aVGodzilla
p994
aVAnimation Characters
p995
aVBetty Boop
p996
aVPeelers
p997
aVToasters
p998
aVShelia's
p999
aVWinston
p1000
aVHandle Ties
p1001
aVChristmas: Current (1991-Now)
p1002
aVNutcrackers
p1003
aVSan Francisco Music Box
p1004
aVBoonton
p1005
aVHollow Ware
p1006
aVCalendars
p1007
aVVintage Plastic
p1008
aVJapanese
p1009
aVDragonBall Z
p1010
aVHockey-NHL
p1011
aVVirginia Slims
p1012
aVRolling Pins
p1013
aVEgg Beaters
p1014
aVPickles, Sauces, Other Food
p1015
aVProtectors
p1016
aVSpare Tops, Bottoms
p1017
aVBaseball-Other
p1018
aVRoyal Copenhagen Coll Plates
p1019
aVDistillery
p1020
aVJack Daniels
p1021
aVMedicines: Screw Top
p1022
aVFlags
p1023
aVOther Flags
p1024
aVGoblets, Tumblers
p1025
aVOther Posters
p1026
aVArtistic Nudes
p1027
aVPotholders, Oven Mitts
p1028
aVPopcorn Poppers
p1029
aVBatteries
p1030
aVOriginal Period Items
p1031
aVDecorative by Theme
p1032
aVX Files
p1033
aVNapkins, Placemats
p1034
aVLucky Strike
p1035
aVKool
p1036
aVPlanet of the Apes
p1037
aVComic Strip Art
p1038
aVCans: Non-US
p1039
aVCandy & Nuts
p1040
aVLife Savers
p1041
aVGolf-PGA
p1042
a.